; Function Attrs: mustprogress uwtable
define dso_local void @_ZN8Function17OutputForwardDeclERSo(ptr noundef nonnull align 8 dereferenceable(424) %0, ptr noundef nonnull align 8 dereferenceable(8) %1) local_unnamed_addr #4 align 2 {
  %3 = getelementptr inbounds nuw i8, ptr %0, i64 267
  %4 = load i8, ptr %3, align 1
  %5 = trunc i8 %4 to i1
  br i1 %5, label %8, label %6

6:                                                ; preds = %2
  tail call void @_ZN8Function12OutputHeaderERSo(ptr noundef nonnull align 8 dereferenceable(424) %0, ptr noundef nonnull align 8 dereferenceable(8) %1)
  tail call void @_ZN18AttributeGenerator6OutputERSo(ptr noundef nonnull align 8 dereferenceable(24) @func_attr_generator, ptr noundef nonnull align 8 dereferenceable(8) %1)
  %7 = tail call noundef nonnull align 8 dereferenceable(8) ptr @_ZStlsISt11char_traitsIcEERSt13basic_ostreamIcT_ES5_PKc(ptr noundef nonnull align 8 dereferenceable(8) %1, ptr noundef nonnull @.str.58)
  tail call void @_Z8outputlnRSo(ptr noundef nonnull align 8 dereferenceable(8) %1)
  br label %8

8:                                                ; preds = %2, %6
  ret void
}